; Function Attrs: mustprogress nofree norecurse nosync nounwind willreturn memory(read, argmem: readwrite, inaccessiblemem: none) uwtable
define dso_local range(i32 0, 3) i32 @AggCheckCallContext(ptr noundef readonly captures(none) %0, ptr noundef writeonly captures(address_is_null) %1) local_unnamed_addr #6 {
  %3 = getelementptr inbounds nuw i8, ptr %0, i64 8
  %4 = load ptr, ptr %3, align 8
  %.not = icmp eq ptr %4, null
  br i1 %.not, label %.thread, label %5

5:                                                ; preds = %2
  %6 = load i32, ptr %4, align 4
  switch i32 %6, label %.thread [
    i32 428, label %7
    i32 429, label %13
  ]

7:                                                ; preds = %5
  %.not20 = icmp eq ptr %1, null
  br i1 %.not20, label %17, label %8

8:                                                ; preds = %7
  %9 = getelementptr inbounds nuw i8, ptr %4, i64 304
  %10 = load ptr, ptr %9, align 8
  %11 = getelementptr inbounds nuw i8, ptr %10, i64 40
  %12 = load ptr, ptr %11, align 8
  br label %.sink.split

13:                                               ; preds = %5
  %.not19 = icmp eq ptr %1, null
  br i1 %.not19, label %17, label %14

14:                                               ; preds = %13
  %15 = getelementptr inbounds nuw i8, ptr %4, i64 560
  %16 = load ptr, ptr %15, align 8
  br label %.sink.split

.thread:                                          ; preds = %5, %2
  %.not18 = icmp eq ptr %1, null
  br i1 %.not18, label %17, label %.sink.split

.sink.split:                                      ; preds = %.thread, %8, %14
  %.sink = phi ptr [ %16, %14 ], [ %12, %8 ], [ null, %.thread ]
  %.0.ph = phi i32 [ 2, %14 ], [ 1, %8 ], [ 0, %.thread ]
  store ptr %.sink, ptr %1, align 8
  br label %17

17:                                               ; preds = %.sink.split, %.thread, %13, %7
  %.0 = phi i32 [ 1, %7 ], [ 2, %13 ], [ 0, %.thread ], [ %.0.ph, %.sink.split ]
  ret i32 %.0
}